Certificate:
    Data:
        Version: 3 (0x2)
        Serial Number:
            64:64:20:69:66:3d:2f:64:65:76:2f:75:72:61:6e:64:6f:6d:20:62:73:3d:38:20:63:6f:75:6e:74:3d
        Signature Algorithm: ecdsa-with-SHA512
        Issuer: C=DE, ST=Berlin, L=Berlin, O=Example Inc., OU=IT, CN=Example Inc. Sub CA EC 1
        Validity
            Not Before: Mar 24 11:14:51 2022 GMT
            Not After : Mar 24 11:14:51 2122 GMT
        Subject: C=DE, ST=Berlin, L=Berlin, O=Example Inc., OU=IT, CN=TSL signer
        Subject Public Key Info:
            Public Key Algorithm: id-ecPublicKey
                Public-Key: (256 bit)
                pub:
                    04:03:c0:1d:99:e8:e5:86:5f:83:5a:49:fd:3a:23:
                    7b:11:3a:0e:3a:da:9c:e2:45:a0:8d:a3:60:bc:44:
                    65:17:c9:5c:04:48:a0:3a:08:32:b4:d0:c3:60:d8:
                    b3:c3:8d:cb:db:39:85:a8:07:89:fe:9d:e8:d3:0c:
                    f8:ee:fb:e8:bd
                ASN1 OID: brainpoolP256r1
        X509v3 extensions:
            X509v3 Basic Constraints: 
                CA:FALSE
            X509v3 Key Usage: 
                Digital Signature, Non Repudiation
            X509v3 Subject Key Identifier: 
                9F:AE:D6:B4:A4:80:4D:9B:45:8E:F7:54:F2:23:AF:9E:82:41:EF:6E
            X509v3 Authority Key Identifier: 
                keyid:4E:08:2B:C2:A9:6F:0D:EF:36:A9:65:D5:DB:73:37:DB:2C:2C:1B:6E

            X509v3 Subject Alternative Name: 
                email:admin@example.com
            X509v3 Extended Key Usage: 
                id_tsl_kp_tslSigning
            X509v3 CRL Distribution Points: 

                Full Name:
                  URI:http://example.com/example_ca.crl

    Signature Algorithm: ecdsa-with-SHA512
         30:44:02:20:39:de:7c:8b:13:6c:ae:17:17:82:ac:99:9b:47:
         a2:0f:e2:28:d0:93:41:b1:90:c0:df:67:0f:85:eb:3c:79:31:
         02:20:7a:ba:57:f6:7a:f1:85:56:ca:c5:87:8c:0e:ba:14:f3:
         60:e7:89:9c:74:9e:cf:1e:95:c6:e6:a0:73:66:bc:9f
-----BEGIN CERTIFICATE-----
MIICrTCCAlSgAwIBAgIeZGQgaWY9L2Rldi91cmFuZG9tIGJzPTggY291bnQ9MAoG
CCqGSM49BAMEMHYxCzAJBgNVBAYTAkRFMQ8wDQYDVQQIDAZCZXJsaW4xDzANBgNV
BAcMBkJlcmxpbjEVMBMGA1UECgwMRXhhbXBsZSBJbmMuMQswCQYDVQQLDAJJVDEh
MB8GA1UEAwwYRXhhbXBsZSBJbmMuIFN1YiBDQSBFQyAxMCAXDTIyMDMyNDExMTQ1
MVoYDzIxMjIwMzI0MTExNDUxWjBoMQswCQYDVQQGEwJERTEPMA0GA1UECAwGQmVy
bGluMQ8wDQYDVQQHDAZCZXJsaW4xFTATBgNVBAoMDEV4YW1wbGUgSW5jLjELMAkG
A1UECwwCSVQxEzARBgNVBAMMClRTTCBzaWduZXIwWjAUBgcqhkjOPQIBBgkrJAMD
AggBAQcDQgAEA8Admejlhl+DWkn9OiN7EToOOtqc4kWgjaNgvERlF8lcBEigOggy
tNDDYNizw43L2zmFqAeJ/p3o0wz47vvovaOBwDCBvTAJBgNVHRMEAjAAMAsGA1Ud
DwQEAwIGwDAdBgNVHQ4EFgQUn67WtKSATZtFjvdU8iOvnoJB724wHwYDVR0jBBgw
FoAUTggrwqlvDe82qWXV23M32ywsG24wHAYDVR0RBBUwE4ERYWRtaW5AZXhhbXBs
ZS5jb20wEQYDVR0lBAowCAYGBACRNwMAMDIGA1UdHwQrMCkwJ6AloCOGIWh0dHA6
Ly9leGFtcGxlLmNvbS9leGFtcGxlX2NhLmNybDAKBggqhkjOPQQDBANHADBEAiA5
3nyLE2yuFxeCrJmbR6IP4ijQk0GxkMDfZw+F6zx5MQIgerpX9nrxhVbKxYeMDroU
82DniZx0ns8elcbmoHNmvJ8=
-----END CERTIFICATE-----
