Certificate:
    Data:
        Version: 3 (0x2)
        Serial Number:
            64:64:20:69:66:3d:2f:64:65:76:2f:75:72:61:6e:64:6f:6d:20:62:73:3d:38:20:63:6f:75:6e:74:3e
        Signature Algorithm: ecdsa-with-SHA512
        Issuer: C=DE, ST=Berlin, L=Berlin, O=Example Inc., OU=IT, CN=Example Inc. Root CA
        Validity
            Not Before: Mar 24 11:14:51 2022 GMT
            Not After : Mar 24 11:14:51 2122 GMT
        Subject: C=DE, ST=Berlin, L=Berlin, O=Example Inc., OU=IT, CN=Example Inc. Sub CA EC 1
        Subject Public Key Info:
            Public Key Algorithm: id-ecPublicKey
                Public-Key: (256 bit)
                pub:
                    04:06:8a:e9:18:7d:07:de:90:39:6c:65:d4:28:ee:
                    a8:74:0f:61:4a:76:0b:a9:c5:45:5a:d7:7e:ce:8f:
                    d0:a5:11:2b:60:54:3c:db:0c:7d:ef:22:3f:35:94:
                    fd:94:5d:4a:a3:17:cd:c1:25:29:46:c0:67:07:ec:
                    45:44:39:4f:d8
                ASN1 OID: brainpoolP256r1
        X509v3 extensions:
            X509v3 Subject Key Identifier: 
                4E:08:2B:C2:A9:6F:0D:EF:36:A9:65:D5:DB:73:37:DB:2C:2C:1B:6E
            X509v3 Authority Key Identifier: 
                keyid:9E:D3:F0:66:F6:8C:5A:44:42:99:08:7B:AA:DD:27:3A:38:73:2D:26
                DirName:/C=DE/ST=Berlin/L=Berlin/O=Example Inc./OU=IT/CN=Example Inc. Root CA
                serial:64:64:20:69:66:3D:2F:64:65:76:2F:75:72:61:6E:64:6F:6D:20:62:73:3D:38:20:63:6F:75:6E:74:3D

            X509v3 Basic Constraints: 
                CA:TRUE
            X509v3 Key Usage: 
                Certificate Sign, CRL Sign
            X509v3 CRL Distribution Points: 

                Full Name:
                  URI:http://example.com/example_ca.crl

            X509v3 Subject Alternative Name: 
                email:mail@example.com
    Signature Algorithm: ecdsa-with-SHA512
         30:44:02:20:17:fd:0e:2d:4e:a5:96:aa:89:39:cc:ce:9a:21:
         08:8d:7d:91:ad:de:5a:cc:89:3b:6f:a3:98:3e:cf:70:4b:bf:
         02:20:1f:a3:87:00:09:9a:16:56:e8:58:aa:6c:00:65:08:fa:
         83:c2:0e:07:5f:dd:08:00:f9:05:e7:9b:5f:02:5c:e0
-----BEGIN CERTIFICATE-----
MIIDQzCCAuqgAwIBAgIeZGQgaWY9L2Rldi91cmFuZG9tIGJzPTggY291bnQ+MAoG
CCqGSM49BAMEMHIxCzAJBgNVBAYTAkRFMQ8wDQYDVQQIDAZCZXJsaW4xDzANBgNV
BAcMBkJlcmxpbjEVMBMGA1UECgwMRXhhbXBsZSBJbmMuMQswCQYDVQQLDAJJVDEd
MBsGA1UEAwwURXhhbXBsZSBJbmMuIFJvb3QgQ0EwIBcNMjIwMzI0MTExNDUxWhgP
MjEyMjAzMjQxMTE0NTFaMHYxCzAJBgNVBAYTAkRFMQ8wDQYDVQQIDAZCZXJsaW4x
DzANBgNVBAcMBkJlcmxpbjEVMBMGA1UECgwMRXhhbXBsZSBJbmMuMQswCQYDVQQL
DAJJVDEhMB8GA1UEAwwYRXhhbXBsZSBJbmMuIFN1YiBDQSBFQyAxMFowFAYHKoZI
zj0CAQYJKyQDAwIIAQEHA0IABAaK6Rh9B96QOWxl1CjuqHQPYUp2C6nFRVrXfs6P
0KURK2BUPNsMfe8iPzWU/ZRdSqMXzcElKUbAZwfsRUQ5T9ijggFLMIIBRzAdBgNV
HQ4EFgQUTggrwqlvDe82qWXV23M32ywsG24wgbkGA1UdIwSBsTCBroAUntPwZvaM
WkRCmQh7qt0nOjhzLSahdqR0MHIxCzAJBgNVBAYTAkRFMQ8wDQYDVQQIDAZCZXJs
aW4xDzANBgNVBAcMBkJlcmxpbjEVMBMGA1UECgwMRXhhbXBsZSBJbmMuMQswCQYD
VQQLDAJJVDEdMBsGA1UEAwwURXhhbXBsZSBJbmMuIFJvb3QgQ0GCHmRkIGlmPS9k
ZXYvdXJhbmRvbSBicz04IGNvdW50PTAMBgNVHRMEBTADAQH/MAsGA1UdDwQEAwIB
BjAyBgNVHR8EKzApMCegJaAjhiFodHRwOi8vZXhhbXBsZS5jb20vZXhhbXBsZV9j
YS5jcmwwGwYDVR0RBBQwEoEQbWFpbEBleGFtcGxlLmNvbTAKBggqhkjOPQQDBANH
ADBEAiAX/Q4tTqWWqok5zM6aIQiNfZGt3lrMiTtvo5g+z3BLvwIgH6OHAAmaFlbo
WKpsAGUI+oPCDgdf3QgA+QXnm18CXOA=
-----END CERTIFICATE-----
