Certificate:
    Data:
        Version: 3 (0x2)
        Serial Number:
            93:bd:2d:1f:0d:d3:45:36:ab:8c:16:75:ae:b8:38:b1
        Signature Algorithm: ecdsa-with-SHA256
        Issuer: C = DE, O = achelos GmbH NOT-VALID, OU = Zentrale Root-CA der Telematikinfrastruktur, CN = ACLOS.RCA TEST-ONLY
        Validity
            Not Before: Jan 30 23:00:00 2022 GMT
            Not After : Jan 31 23:00:00 2027 GMT
        Subject: C = DE, O = achelos GmbH NOT-VALID, OU = Komponenten-CA der Telematikinfrastruktur, CN = ACLOS.KOMP-CA TEST-ONLY
        Subject Public Key Info:
            Public Key Algorithm: id-ecPublicKey
                Public-Key: (256 bit)
                pub:
                    04:52:5b:ae:a2:3f:ec:78:81:41:a2:78:9a:ef:54:
                    d4:6a:f7:91:92:1f:e8:73:e9:b3:13:58:55:23:30:
                    69:f9:a7:53:43:30:5c:e4:d8:81:25:71:de:f0:18:
                    90:32:4e:f4:77:6e:e5:d1:47:7f:82:66:b8:24:a3:
                    48:42:d3:f1:57
                ASN1 OID: brainpoolP256r1
        X509v3 extensions:
            X509v3 Subject Key Identifier:
                E8:3D:6B:B3:D8:27:28:01:95:1A:F1:50:A7:8C:42:5E:BA:DD:88:58
            X509v3 Key Usage: critical
                Certificate Sign, CRL Sign
            X509v3 Basic Constraints: critical
                CA:TRUE, pathlen:0
            X509v3 Certificate Policies:
                Policy: 1.2.276.0.76.4.163
                  CPS: http://www.achelos.de/policies/EE_policy.html

            Authority Information Access:
                OCSP - URI:http://ocsp.achelos.de:8080/ocsp/

            X509v3 Authority Key Identifier:
                keyid:2C:F9:A4:D4:E2:4F:FB:B3:CF:CA:84:62:38:F8:F3:82:EB:90:19:A2

    Signature Algorithm: ecdsa-with-SHA256
         30:45:02:20:6e:9e:9b:56:16:48:36:e3:6a:03:61:2d:f8:4e:
         e8:d6:82:ea:9c:c6:ef:0a:e1:53:41:8f:91:6b:68:ff:10:b0:
         02:21:00:8d:22:13:7f:2f:6e:7c:66:0d:cf:58:17:80:f6:87:
         cb:90:1e:6f:f9:c7:c3:bf:62:f2:52:4d:66:35:56:6b:10
-----BEGIN CERTIFICATE-----
MIIDAzCCAqmgAwIBAgIRAJO9LR8N00U2q4wWda64OLEwCgYIKoZIzj0EAwIwgYIx
CzAJBgNVBAYTAkRFMR8wHQYDVQQKDBZhY2hlbG9zIEdtYkggTk9ULVZBTElEMTQw
MgYDVQQLDCtaZW50cmFsZSBSb290LUNBIGRlciBUZWxlbWF0aWtpbmZyYXN0cnVr
dHVyMRwwGgYDVQQDDBNBQ0xPUy5SQ0EgVEVTVC1PTkxZMB4XDTIyMDEzMDIzMDAw
MFoXDTI3MDEzMTIzMDAwMFowgYQxCzAJBgNVBAYTAkRFMR8wHQYDVQQKDBZhY2hl
bG9zIEdtYkggTk9ULVZBTElEMTIwMAYDVQQLDClLb21wb25lbnRlbi1DQSBkZXIg
VGVsZW1hdGlraW5mcmFzdHJ1a3R1cjEgMB4GA1UEAwwXQUNMT1MuS09NUC1DQSBU
RVNULU9OTFkwWjAUBgcqhkjOPQIBBgkrJAMDAggBAQcDQgAEUluuoj/seIFBonia
71TUaveRkh/oc+mzE1hVIzBp+adTQzBc5NiBJXHe8BiQMk70d27l0Ud/gma4JKNI
QtPxV6OB+jCB9zAdBgNVHQ4EFgQU6D1rs9gnKAGVGvFQp4xCXrrdiFgwDgYDVR0P
AQH/BAQDAgEGMBIGA1UdEwEB/wQIMAYBAf8CAQAwUgYDVR0gBEswSTBHBggqghQA
TASBIzA7MDkGCCsGAQUFBwIBFi1odHRwOi8vd3d3LmFjaGVsb3MuZGUvcG9saWNp
ZXMvRUVfcG9saWN5Lmh0bWwwPQYIKwYBBQUHAQEEMTAvMC0GCCsGAQUFBzABhiFo
dHRwOi8vb2NzcC5hY2hlbG9zLmRlOjgwODAvb2NzcC8wHwYDVR0jBBgwFoAULPmk
1OJP+7PPyoRiOPjzguuQGaIwCgYIKoZIzj0EAwIDSAAwRQIgbp6bVhZINuNqA2Et
+E7o1oLqnMbvCuFTQY+Ra2j/ELACIQCNIhN/L258Zg3PWBeA9ofLkB5v+cfDv2Ly
Uk1mNVZrEA==
-----END CERTIFICATE-----
