Certificate:
    Data:
        Version: 3 (0x2)
        Serial Number:
            a0:4c:8a:e1:f6:01:46:fd:b2:6c:84:ca:a3:03:3a:c0
        Signature Algorithm: ecdsa-with-SHA256
        Issuer: C = DE, O = achelos GmbH NOT-VALID, OU = Komponenten-CA der Telematikinfrastruktur, CN = ACLOS.KOMP-CA TEST-ONLY
        Validity
            Not Before: Jan 30 23:00:00 2022 GMT
            Not After : Jan 31 23:00:00 2027 GMT
        Subject: CN = IDP Sig 3, O = gematik TEST-ONLY - NOT-VALID, C = DE
        Subject Public Key Info:
            Public Key Algorithm: id-ecPublicKey
                Public-Key: (256 bit)
                pub:
                    04:86:19:9f:08:86:02:7e:50:60:ec:78:dd:9f:0c:
                    c1:a6:4b:0f:7a:ff:6f:3e:81:4d:c4:0e:e6:96:de:
                    ba:6e:aa:43:36:03:e5:d0:c2:72:b8:b0:fd:53:4f:
                    3d:90:90:cd:74:0f:83:84:ad:5b:2c:b9:38:ea:bd:
                    4e:88:01:12:63
                ASN1 OID: brainpoolP256r1
        X509v3 extensions:
            X509v3 Subject Key Identifier:
                7C:79:B5:53:61:EE:41:59:8C:D1:93:2F:11:F6:85:41:7D:FB:69:81
            X509v3 Key Usage: critical
                Digital Signature
            X509v3 Basic Constraints: critical
                CA:FALSE
            X509v3 Certificate Policies:
                Policy: 1.2.276.0.76.4.163
                  CPS: http://www.gematik.de/go/policies
                Policy: 1.2.276.0.76.4.203

            Authority Information Access:
                OCSP - URI:http://ocsp-test.ocsp.telematik-test:8080/

            X509v3 Authority Key Identifier:
                keyid:E8:3D:6B:B3:D8:27:28:01:95:1A:F1:50:A7:8C:42:5E:BA:DD:88:58

            Professional Information or basis for Admission:
                Entry 1:
                  Profession Info Entry 1:
                    Info Entries:
                      IDP-Dienst
                    Profession OIDs:
                      undefined (1.2.276.0.76.4.260)

    Signature Algorithm: ecdsa-with-SHA256
         30:44:02:20:4c:89:35:ae:e3:af:ef:c8:dc:99:32:79:c3:8c:
         54:a7:cf:06:47:24:20:0b:f8:4b:a7:79:ee:16:44:e2:57:a1:
         02:20:5f:19:63:6c:b0:61:42:5b:3f:ce:b2:c5:11:45:5c:1f:
         74:20:18:11:0e:8f:f3:98:68:48:45:6d:3f:c1:fa:c0
-----BEGIN CERTIFICATE-----
MIIC/DCCAqOgAwIBAgIRAKBMiuH2AUb9smyEyqMDOsAwCgYIKoZIzj0EAwIwgYQx
CzAJBgNVBAYTAkRFMR8wHQYDVQQKDBZhY2hlbG9zIEdtYkggTk9ULVZBTElEMTIw
MAYDVQQLDClLb21wb25lbnRlbi1DQSBkZXIgVGVsZW1hdGlraW5mcmFzdHJ1a3R1
cjEgMB4GA1UEAwwXQUNMT1MuS09NUC1DQSBURVNULU9OTFkwHhcNMjIwMTMwMjMw
MDAwWhcNMjcwMTMxMjMwMDAwWjBJMRIwEAYDVQQDDAlJRFAgU2lnIDMxJjAkBgNV
BAoMHWdlbWF0aWsgVEVTVC1PTkxZIC0gTk9ULVZBTElEMQswCQYDVQQGEwJERTBa
MBQGByqGSM49AgEGCSskAwMCCAEBBwNCAASGGZ8IhgJ+UGDseN2fDMGmSw96/28+
gU3EDuaW3rpuqkM2A+XQwnK4sP1TTz2QkM10D4OErVssuTjqvU6IARJjo4IBLTCC
ASkwHQYDVR0OBBYEFHx5tVNh7kFZjNGTLxH2hUF9+2mBMA4GA1UdDwEB/wQEAwIH
gDAMBgNVHRMBAf8EAjAAMFIGA1UdIARLMEkwOwYIKoIUAEwEgSMwLzAtBggrBgEF
BQcCARYhaHR0cDovL3d3dy5nZW1hdGlrLmRlL2dvL3BvbGljaWVzMAoGCCqCFABM
BIFLMEYGCCsGAQUFBwEBBDowODA2BggrBgEFBQcwAYYqaHR0cDovL29jc3AtdGVz
dC5vY3NwLnRlbGVtYXRpay10ZXN0OjgwODAvMB8GA1UdIwQYMBaAFOg9a7PYJygB
lRrxUKeMQl663YhYMC0GBSskCAMDBCQwIjAgMB4wHDAaMAwMCklEUC1EaWVuc3Qw
CgYIKoIUAEwEggQwCgYIKoZIzj0EAwIDRwAwRAIgTIk1ruOv78jcmTJ5w4xUp88G
RyQgC/hLp3nuFkTiV6ECIF8ZY2ywYUJbP86yxRFFXB90IBgRDo/zmGhIRW0/wfrA
-----END CERTIFICATE-----
