Certificate:
    Data:
        Version: 3 (0x2)
        Serial Number:
            7c:34:09:b2:6f:b4:41:44:a5:5d:86:cb:83:36:91:01
        Signature Algorithm: ecdsa-with-SHA256
        Issuer: C = DE, O = achelos GmbH NOT-VALID, OU = Komponenten-CA der Telematikinfrastruktur, CN = ACLOS.KOMP-CA TEST-ONLY
        Validity
            Not Before: Jan 30 23:00:00 2022 GMT
            Not After : Jan 31 23:00:00 2027 GMT
        Subject: CN = IDP Sig 3, O = gematik TEST-ONLY - NOT-VALID, C = DE
        Subject Public Key Info:
            Public Key Algorithm: id-ecPublicKey
                Public-Key: (256 bit)
                pub:
                    04:86:19:9f:08:86:02:7e:50:60:ec:78:dd:9f:0c:
                    c1:a6:4b:0f:7a:ff:6f:3e:81:4d:c4:0e:e6:96:de:
                    ba:6e:aa:43:36:03:e5:d0:c2:72:b8:b0:fd:53:4f:
                    3d:90:90:cd:74:0f:83:84:ad:5b:2c:b9:38:ea:bd:
                    4e:88:01:12:63
                ASN1 OID: brainpoolP256r1
        X509v3 extensions:
            X509v3 Subject Key Identifier:
                6E:C9:5A:87:94:35:87:86:BE:0A:5D:66:E8:8B:BA:31:FF:F6:CD:C0
            X509v3 Key Usage: critical
                Digital Signature
            X509v3 Basic Constraints: critical
                CA:FALSE
            X509v3 Certificate Policies:
                Policy: 1.2.276.0.76.4.163
                  CPS: http://www.gematik.de/go/policies
                Policy: 1.2.276.0.76.4.203

            Authority Information Access:
                OCSP - URI:http://ocsp-test.ocsp.telematik-test:8080/

            X509v3 Authority Key Identifier:
                keyid:E8:3D:6B:B3:D8:27:28:01:95:1A:F1:50:A7:8C:42:5E:BA:DD:88:58

            Professional Information or basis for Admission:
                Entry 1:
                  Profession Info Entry 1:
                    Info Entries:
                      IDP-Dienst
                    Profession OIDs:
                      undefined (1.2.276.0.76.4.260)
                  Profession Info Entry 2:
                    Info Entries:
                      ePA Authentisierung
                    Profession OIDs:
                      undefined (1.2.276.0.76.4.204)

    Signature Algorithm: ecdsa-with-SHA256
         30:44:02:20:40:58:db:5c:9e:07:ed:c5:9f:d2:4d:8e:4a:65:
         b3:e6:a2:63:b3:50:57:50:94:ee:1d:90:10:21:c9:7e:7a:e8:
         02:20:5d:37:83:d4:94:11:15:7b:bc:a7:c2:3e:42:d1:a9:ff:
         af:69:c6:b3:76:d4:52:49:e1:98:4d:f1:e0:25:58:fb
-----BEGIN CERTIFICATE-----
MIIDIDCCAsegAwIBAgIQfDQJsm+0QUSlXYbLgzaRATAKBggqhkjOPQQDAjCBhDEL
MAkGA1UEBhMCREUxHzAdBgNVBAoMFmFjaGVsb3MgR21iSCBOT1QtVkFMSUQxMjAw
BgNVBAsMKUtvbXBvbmVudGVuLUNBIGRlciBUZWxlbWF0aWtpbmZyYXN0cnVrdHVy
MSAwHgYDVQQDDBdBQ0xPUy5LT01QLUNBIFRFU1QtT05MWTAeFw0yMjAxMzAyMzAw
MDBaFw0yNzAxMzEyMzAwMDBaMEkxEjAQBgNVBAMMCUlEUCBTaWcgMzEmMCQGA1UE
CgwdZ2VtYXRpayBURVNULU9OTFkgLSBOT1QtVkFMSUQxCzAJBgNVBAYTAkRFMFow
FAYHKoZIzj0CAQYJKyQDAwIIAQEHA0IABIYZnwiGAn5QYOx43Z8MwaZLD3r/bz6B
TcQO5pbeum6qQzYD5dDCcriw/VNPPZCQzXQPg4StWyy5OOq9TogBEmOjggFSMIIB
TjAdBgNVHQ4EFgQUbslah5Q1h4a+Cl1m6Iu6Mf/2zcAwDgYDVR0PAQH/BAQDAgeA
MAwGA1UdEwEB/wQCMAAwUgYDVR0gBEswSTA7BggqghQATASBIzAvMC0GCCsGAQUF
BwIBFiFodHRwOi8vd3d3LmdlbWF0aWsuZGUvZ28vcG9saWNpZXMwCgYIKoIUAEwE
gUswRgYIKwYBBQUHAQEEOjA4MDYGCCsGAQUFBzABhipodHRwOi8vb2NzcC10ZXN0
Lm9jc3AudGVsZW1hdGlrLXRlc3Q6ODA4MC8wHwYDVR0jBBgwFoAU6D1rs9gnKAGV
GvFQp4xCXrrdiFgwUgYFKyQIAwMESTBHMEUwQzBBMBowDAwKSURQLURpZW5zdDAK
BggqghQATASCBDAjMBUME2VQQSBBdXRoZW50aXNpZXJ1bmcwCgYIKoIUAEwEgUww
CgYIKoZIzj0EAwIDRwAwRAIgQFjbXJ4H7cWf0k2OSmWz5qJjs1BXUJTuHZAQIcl+
eugCIF03g9SUERV7vKfCPkLRqf+vacazdtRSSeGYTfHgJVj7
-----END CERTIFICATE-----