Certificate:
    Data:
        Version: 3 (0x2)
        Serial Number:
            64:64:20:69:66:3d:2f:64:65:76:2f:75:72:61:6e:64:6f:6d:20:62:73:3d:38:20:63:6f:75:6e:74:3d
        Signature Algorithm: ecdsa-with-SHA512
        Issuer: C=DE, ST=Berlin, L=Berlin, O=Example Inc., OU=IT, CN=Example Inc. Root CA
        Validity
            Not Before: Mar 24 11:14:51 2022 GMT
            Not After : Mar 24 11:14:51 2032 GMT
        Subject: C=DE, ST=Berlin, L=Berlin, O=Example Inc., OU=IT, CN=Example Inc. Root CA
        Subject Public Key Info:
            Public Key Algorithm: id-ecPublicKey
                Public-Key: (256 bit)
                pub:
                    04:8c:4d:aa:1d:48:f1:94:96:8a:32:dd:b2:9e:ca:
                    0c:53:6e:d5:40:00:32:da:11:b0:95:61:db:a3:32:
                    51:8e:c4:2f:28:e5:a0:47:f9:88:d3:ce:5c:bd:ed:
                    72:bd:fe:08:44:99:59:4d:98:32:e1:8e:e7:ec:f9:
                    b1:0a:d4:08:74
                ASN1 OID: brainpoolP256r1
        X509v3 extensions:
            X509v3 Subject Key Identifier: 
                9E:D3:F0:66:F6:8C:5A:44:42:99:08:7B:AA:DD:27:3A:38:73:2D:26
            X509v3 Authority Key Identifier: 
                keyid:9E:D3:F0:66:F6:8C:5A:44:42:99:08:7B:AA:DD:27:3A:38:73:2D:26
                DirName:/C=DE/ST=Berlin/L=Berlin/O=Example Inc./OU=IT/CN=Example Inc. Root CA
                serial:64:64:20:69:66:3D:2F:64:65:76:2F:75:72:61:6E:64:6F:6D:20:62:73:3D:38:20:63:6F:75:6E:74:3D

            X509v3 Basic Constraints: 
                CA:TRUE
            X509v3 Key Usage: 
                Certificate Sign, CRL Sign
            X509v3 CRL Distribution Points: 

                Full Name:
                  URI:http://example.com/example_ca.crl

            X509v3 Subject Alternative Name: 
                email:mail@example.com
    Signature Algorithm: ecdsa-with-SHA512
         30:44:02:20:28:fe:07:60:28:af:37:3e:5f:6d:d7:d4:a9:7d:
         7b:1b:12:53:56:0c:3c:fb:31:48:8c:4f:55:f9:11:3e:32:5c:
         02:20:1d:da:28:56:bf:b8:96:5b:08:b8:ff:97:be:b3:4b:1a:
         58:64:8d:4e:11:ea:c0:ab:86:87:06:7a:18:f3:85:b5
-----BEGIN CERTIFICATE-----
MIIDPTCCAuSgAwIBAgIeZGQgaWY9L2Rldi91cmFuZG9tIGJzPTggY291bnQ9MAoG
CCqGSM49BAMEMHIxCzAJBgNVBAYTAkRFMQ8wDQYDVQQIDAZCZXJsaW4xDzANBgNV
BAcMBkJlcmxpbjEVMBMGA1UECgwMRXhhbXBsZSBJbmMuMQswCQYDVQQLDAJJVDEd
MBsGA1UEAwwURXhhbXBsZSBJbmMuIFJvb3QgQ0EwHhcNMjIwMzI0MTExNDUxWhcN
MzIwMzI0MTExNDUxWjByMQswCQYDVQQGEwJERTEPMA0GA1UECAwGQmVybGluMQ8w
DQYDVQQHDAZCZXJsaW4xFTATBgNVBAoMDEV4YW1wbGUgSW5jLjELMAkGA1UECwwC
SVQxHTAbBgNVBAMMFEV4YW1wbGUgSW5jLiBSb290IENBMFowFAYHKoZIzj0CAQYJ
KyQDAwIIAQEHA0IABIxNqh1I8ZSWijLdsp7KDFNu1UAAMtoRsJVh26MyUY7ELyjl
oEf5iNPOXL3tcr3+CESZWU2YMuGO5+z5sQrUCHSjggFLMIIBRzAdBgNVHQ4EFgQU
ntPwZvaMWkRCmQh7qt0nOjhzLSYwgbkGA1UdIwSBsTCBroAUntPwZvaMWkRCmQh7
qt0nOjhzLSahdqR0MHIxCzAJBgNVBAYTAkRFMQ8wDQYDVQQIDAZCZXJsaW4xDzAN
BgNVBAcMBkJlcmxpbjEVMBMGA1UECgwMRXhhbXBsZSBJbmMuMQswCQYDVQQLDAJJ
VDEdMBsGA1UEAwwURXhhbXBsZSBJbmMuIFJvb3QgQ0GCHmRkIGlmPS9kZXYvdXJh
bmRvbSBicz04IGNvdW50PTAMBgNVHRMEBTADAQH/MAsGA1UdDwQEAwIBBjAyBgNV
HR8EKzApMCegJaAjhiFodHRwOi8vZXhhbXBsZS5jb20vZXhhbXBsZV9jYS5jcmww
GwYDVR0RBBQwEoEQbWFpbEBleGFtcGxlLmNvbTAKBggqhkjOPQQDBANHADBEAiAo
/gdgKK83Pl9t19SpfXsbElNWDDz7MUiMT1X5ET4yXAIgHdooVr+4llsIuP+XvrNL
GlhkjU4R6sCrhocGehjzhbU=
-----END CERTIFICATE-----
